; Function Attrs: nounwind uwtable
define i32 @OSSL_STORE_error(ptr noundef readonly captures(none) %0) local_unnamed_addr #0 {
  %2 = getelementptr inbounds nuw i8, ptr %0, i64 8
  %3 = load ptr, ptr %2, align 8, !tbaa !33
  %.not = icmp eq ptr %3, null
  br i1 %.not, label %7, label %4

4:                                                ; preds = %1
  %5 = getelementptr inbounds nuw i8, ptr %0, i64 60
  %6 = load i32, ptr %5, align 4, !tbaa !65
  br label %14

7:                                                ; preds = %1
  %8 = load ptr, ptr %0, align 8, !tbaa !34
  %9 = getelementptr inbounds nuw i8, ptr %8, i64 72
  %10 = load ptr, ptr %9, align 8, !tbaa !71
  %11 = getelementptr inbounds nuw i8, ptr %0, i64 16
  %12 = load ptr, ptr %11, align 8, !tbaa !35
  %13 = tail call i32 %10(ptr noundef %12) #9
  br label %14

14:                                               ; preds = %4, %7
  %.1 = phi i32 [ %13, %7 ], [ %6, %4 ]
  ret i32 %.1
}